target datalayout = "e-m:e-p270:32:32-p271:32:32-p272:64:64-i64:64-i128:128-f80:128-n8:16:32:64-S128"
target triple = "x86_64-pc-linux-gnu"

%struct.lxb_html_tokenizer = type { ptr, ptr, ptr, ptr, ptr, ptr, ptr, ptr, ptr, ptr, ptr, ptr, ptr, ptr, ptr, i64, ptr, ptr, ptr, ptr, ptr, i64, i64, ptr, ptr, i64, i64, i32, i32, i8, i32, i32, i8, ptr, i64 }
%struct.lxb_html_token_t = type { ptr, ptr, i64, i64, ptr, ptr, ptr, ptr, ptr, i64, i64, i32 }

; Function Attrs: nounwind uwtable
define internal void @lxb_html_token_clean(ptr noundef %0) #0 {
  %2 = alloca ptr, align 8
  store ptr %0, ptr %2, align 8
  %3 = load ptr, ptr %2, align 8
  call void @llvm.memset.p0.i64(ptr align 8 %3, i8 0, i64 96, i1 false)
  ret void
}

; Function Attrs: nounwind uwtable
define internal ptr @lxb_html_tokenizer_state_doctype_after_public_identifier(ptr noundef %0, ptr noundef %1, ptr noundef %2) #0 {
  %4 = alloca ptr, align 8
  %5 = alloca ptr, align 8
  %6 = alloca ptr, align 8
  %7 = alloca ptr, align 8
  %8 = alloca ptr, align 8
  store ptr %0, ptr %5, align 8
  store ptr %1, ptr %6, align 8
  store ptr %2, ptr %7, align 8
  %9 = load ptr, ptr %6, align 8
  %10 = load i8, ptr %9, align 1
  %11 = zext i8 %10 to i32
  switch i32 %11, label %197 [
    i32 9, label %12
    i32 10, label %12
    i32 12, label %12
    i32 13, label %12
    i32 32, label %12
    i32 62, label %17
    i32 34, label %73
    i32 39, label %99
    i32 0, label %125
  ]

12:                                               ; preds = %3, %3, %3, %3, %3
  %13 = load ptr, ptr %5, align 8
  %14 = getelementptr inbounds %struct.lxb_html_tokenizer, ptr %13, i32 0, i32 0
  store ptr @lxb_html_tokenizer_state_doctype_between_public_and_system_identifiers, ptr %14, align 8
  %15 = load ptr, ptr %6, align 8
  %16 = getelementptr inbounds i8, ptr %15, i64 1
  store ptr %16, ptr %4, align 8
  br label %212

17:                                               ; preds = %3
  %18 = load ptr, ptr %5, align 8
  %19 = getelementptr inbounds %struct.lxb_html_tokenizer, ptr %18, i32 0, i32 0
  store ptr @lxb_html_tokenizer_state_data_before, ptr %19, align 8
  br label %20

20:                                               ; preds = %17
  %21 = load ptr, ptr %5, align 8
  %22 = getelementptr inbounds %struct.lxb_html_tokenizer, ptr %21, i32 0, i32 8
  %23 = load ptr, ptr %22, align 8
  %24 = getelementptr inbounds %struct.lxb_html_token_t, ptr %23, i32 0, i32 0
  %25 = load ptr, ptr %24, align 8
  %26 = load ptr, ptr %5, align 8
  %27 = getelementptr inbounds %struct.lxb_html_tokenizer, ptr %26, i32 0, i32 8
  %28 = load ptr, ptr %27, align 8
  %29 = getelementptr inbounds %struct.lxb_html_token_t, ptr %28, i32 0, i32 1
  %30 = load ptr, ptr %29, align 8
  %31 = icmp ne ptr %25, %30
  br i1 %31, label %32, label %61

32:                                               ; preds = %20
  %33 = load ptr, ptr %5, align 8
  %34 = getelementptr inbounds %struct.lxb_html_tokenizer, ptr %33, i32 0, i32 2
  %35 = load ptr, ptr %34, align 8
  %36 = load ptr, ptr %5, align 8
  %37 = load ptr, ptr %5, align 8
  %38 = getelementptr inbounds %struct.lxb_html_tokenizer, ptr %37, i32 0, i32 8
  %39 = load ptr, ptr %38, align 8
  %40 = load ptr, ptr %5, align 8
  %41 = getelementptr inbounds %struct.lxb_html_tokenizer, ptr %40, i32 0, i32 3
  %42 = load ptr, ptr %41, align 8
  %43 = call ptr %35(ptr noundef %36, ptr noundef %39, ptr noundef %42)
  %44 = load ptr, ptr %5, align 8
  %45 = getelementptr inbounds %struct.lxb_html_tokenizer, ptr %44, i32 0, i32 8
  store ptr %43, ptr %45, align 8
  %46 = load ptr, ptr %5, align 8
  %47 = getelementptr inbounds %struct.lxb_html_tokenizer, ptr %46, i32 0, i32 8
  %48 = load ptr, ptr %47, align 8
  %49 = icmp eq ptr %48, null
  br i1 %49, label %50, label %60

50:                                               ; preds = %32
  %51 = load ptr, ptr %5, align 8
  %52 = getelementptr inbounds %struct.lxb_html_tokenizer, ptr %51, i32 0, i32 31
  %53 = load i32, ptr %52, align 8
  %54 = icmp eq i32 %53, 0
  br i1 %54, label %55, label %58

55:                                               ; preds = %50
  %56 = load ptr, ptr %5, align 8
  %57 = getelementptr inbounds %struct.lxb_html_tokenizer, ptr %56, i32 0, i32 31
  store i32 1, ptr %57, align 8
  br label %58

58:                                               ; preds = %55, %50
  %59 = load ptr, ptr %7, align 8
  store ptr %59, ptr %4, align 8
  br label %212

60:                                               ; preds = %32
  br label %61

61:                                               ; preds = %60, %20
  %62 = load ptr, ptr %5, align 8
  %63 = getelementptr inbounds %struct.lxb_html_tokenizer, ptr %62, i32 0, i32 8
  %64 = load ptr, ptr %63, align 8
  call void @lxb_html_token_clean(ptr noundef %64)
  %65 = load ptr, ptr %5, align 8
  %66 = getelementptr inbounds %struct.lxb_html_tokenizer, ptr %65, i32 0, i32 16
  %67 = load ptr, ptr %66, align 8
  %68 = load ptr, ptr %5, align 8
  %69 = getelementptr inbounds %struct.lxb_html_tokenizer, ptr %68, i32 0, i32 17
  store ptr %67, ptr %69, align 8
  br label %70

70:                                               ; preds = %61
  %71 = load ptr, ptr %6, align 8
  %72 = getelementptr inbounds i8, ptr %71, i64 1
  store ptr %72, ptr %4, align 8
  br label %212

73:                                               ; preds = %3
  %74 = load ptr, ptr %5, align 8
  %75 = getelementptr inbounds %struct.lxb_html_tokenizer, ptr %74, i32 0, i32 11
  %76 = load ptr, ptr %75, align 8
  %77 = load ptr, ptr %6, align 8
  %78 = call ptr @lxb_html_tokenizer_error_add(ptr noundef %76, ptr noundef %77, i32 noundef 33)
  br label %79

79:                                               ; preds = %73
  %80 = load ptr, ptr %5, align 8
  %81 = getelementptr inbounds %struct.lxb_html_tokenizer, ptr %80, i32 0, i32 8
  %82 = load ptr, ptr %81, align 8
  %83 = load ptr, ptr %5, align 8
  %84 = getelementptr inbounds %struct.lxb_html_tokenizer, ptr %83, i32 0, i32 10
  %85 = load ptr, ptr %84, align 8
  %86 = call ptr @lxb_html_token_attr_append(ptr noundef %82, ptr noundef %85)
  store ptr %86, ptr %8, align 8
  %87 = load ptr, ptr %8, align 8
  %88 = icmp eq ptr %87, null
  br i1 %88, label %89, label %93

89:                                               ; preds = %79
  %90 = load ptr, ptr %5, align 8
  %91 = getelementptr inbounds %struct.lxb_html_tokenizer, ptr %90, i32 0, i32 31
  store i32 2, ptr %91, align 8
  %92 = load ptr, ptr %7, align 8
  store ptr %92, ptr %4, align 8
  br label %212

93:                                               ; preds = %79
  br label %94

94:                                               ; preds = %93
  %95 = load ptr, ptr %5, align 8
  %96 = getelementptr inbounds %struct.lxb_html_tokenizer, ptr %95, i32 0, i32 0
  store ptr @lxb_html_tokenizer_state_doctype_system_identifier_double_quoted, ptr %96, align 8
  %97 = load ptr, ptr %6, align 8
  %98 = getelementptr inbounds i8, ptr %97, i64 1
  store ptr %98, ptr %4, align 8
  br label %212

99:                                               ; preds = %3
  %100 = load ptr, ptr %5, align 8
  %101 = getelementptr inbounds %struct.lxb_html_tokenizer, ptr %100, i32 0, i32 11
  %102 = load ptr, ptr %101, align 8
  %103 = load ptr, ptr %6, align 8
  %104 = call ptr @lxb_html_tokenizer_error_add(ptr noundef %102, ptr noundef %103, i32 noundef 33)
  br label %105

105:                                              ; preds = %99
  %106 = load ptr, ptr %5, align 8
  %107 = getelementptr inbounds %struct.lxb_html_tokenizer, ptr %106, i32 0, i32 8
  %108 = load ptr, ptr %107, align 8
  %109 = load ptr, ptr %5, align 8
  %110 = getelementptr inbounds %struct.lxb_html_tokenizer, ptr %109, i32 0, i32 10
  %111 = load ptr, ptr %110, align 8
  %112 = call ptr @lxb_html_token_attr_append(ptr noundef %108, ptr noundef %111)
  store ptr %112, ptr %8, align 8
  %113 = load ptr, ptr %8, align 8
  %114 = icmp eq ptr %113, null
  br i1 %114, label %115, label %119

115:                                              ; preds = %105
  %116 = load ptr, ptr %5, align 8
  %117 = getelementptr inbounds %struct.lxb_html_tokenizer, ptr %116, i32 0, i32 31
  store i32 2, ptr %117, align 8
  %118 = load ptr, ptr %7, align 8
  store ptr %118, ptr %4, align 8
  br label %212

119:                                              ; preds = %105
  br label %120

120:                                              ; preds = %119
  %121 = load ptr, ptr %5, align 8
  %122 = getelementptr inbounds %struct.lxb_html_tokenizer, ptr %121, i32 0, i32 0
  store ptr @lxb_html_tokenizer_state_doctype_system_identifier_single_quoted, ptr %122, align 8
  %123 = load ptr, ptr %6, align 8
  %124 = getelementptr inbounds i8, ptr %123, i64 1
  store ptr %124, ptr %4, align 8
  br label %212

125:                                              ; preds = %3
  %126 = load ptr, ptr %5, align 8
  %127 = getelementptr inbounds %struct.lxb_html_tokenizer, ptr %126, i32 0, i32 32
  %128 = load i8, ptr %127, align 4
  %129 = trunc i8 %128 to i1
  br i1 %129, label %130, label %196

130:                                              ; preds = %125
  %131 = load ptr, ptr %5, align 8
  %132 = getelementptr inbounds %struct.lxb_html_tokenizer, ptr %131, i32 0, i32 11
  %133 = load ptr, ptr %132, align 8
  %134 = load ptr, ptr %5, align 8
  %135 = getelementptr inbounds %struct.lxb_html_tokenizer, ptr %134, i32 0, i32 20
  %136 = load ptr, ptr %135, align 8
  %137 = call ptr @lxb_html_tokenizer_error_add(ptr noundef %133, ptr noundef %136, i32 noundef 14)
  %138 = load ptr, ptr %5, align 8
  %139 = getelementptr inbounds %struct.lxb_html_tokenizer, ptr %138, i32 0, i32 8
  %140 = load ptr, ptr %139, align 8
  %141 = getelementptr inbounds %struct.lxb_html_token_t, ptr %140, i32 0, i32 11
  %142 = load i32, ptr %141, align 8
  %143 = or i32 %142, 4
  store i32 %143, ptr %141, align 8
  br label %144

144:                                              ; preds = %130
  %145 = load ptr, ptr %5, align 8
  %146 = getelementptr inbounds %struct.lxb_html_tokenizer, ptr %145, i32 0, i32 8
  %147 = load ptr, ptr %146, align 8
  %148 = getelementptr inbounds %struct.lxb_html_token_t, ptr %147, i32 0, i32 0
  %149 = load ptr, ptr %148, align 8
  %150 = load ptr, ptr %5, align 8
  %151 = getelementptr inbounds %struct.lxb_html_tokenizer, ptr %150, i32 0, i32 8
  %152 = load ptr, ptr %151, align 8
  %153 = getelementptr inbounds %struct.lxb_html_token_t, ptr %152, i32 0, i32 1
  %154 = load ptr, ptr %153, align 8
  %155 = icmp ne ptr %149, %154
  br i1 %155, label %156, label %185

156:                                              ; preds = %144
  %157 = load ptr, ptr %5, align 8
  %158 = getelementptr inbounds %struct.lxb_html_tokenizer, ptr %157, i32 0, i32 2
  %159 = load ptr, ptr %158, align 8
  %160 = load ptr, ptr %5, align 8
  %161 = load ptr, ptr %5, align 8
  %162 = getelementptr inbounds %struct.lxb_html_tokenizer, ptr %161, i32 0, i32 8
  %163 = load ptr, ptr %162, align 8
  %164 = load ptr, ptr %5, align 8
  %165 = getelementptr inbounds %struct.lxb_html_tokenizer, ptr %164, i32 0, i32 3
  %166 = load ptr, ptr %165, align 8
  %167 = call ptr %159(ptr noundef %160, ptr noundef %163, ptr noundef %166)
  %168 = load ptr, ptr %5, align 8
  %169 = getelementptr inbounds %struct.lxb_html_tokenizer, ptr %168, i32 0, i32 8
  store ptr %167, ptr %169, align 8
  %170 = load ptr, ptr %5, align 8
  %171 = getelementptr inbounds %struct.lxb_html_tokenizer, ptr %170, i32 0, i32 8
  %172 = load ptr, ptr %171, align 8
  %173 = icmp eq ptr %172, null
  br i1 %173, label %174, label %184

174:                                              ; preds = %156
  %175 = load ptr, ptr %5, align 8
  %176 = getelementptr inbounds %struct.lxb_html_tokenizer, ptr %175, i32 0, i32 31
  %177 = load i32, ptr %176, align 8
  %178 = icmp eq i32 %177, 0
  br i1 %178, label %179, label %182

179:                                              ; preds = %174
  %180 = load ptr, ptr %5, align 8
  %181 = getelementptr inbounds %struct.lxb_html_tokenizer, ptr %180, i32 0, i32 31
  store i32 1, ptr %181, align 8
  br label %182

182:                                              ; preds = %179, %174
  %183 = load ptr, ptr %7, align 8
  store ptr %183, ptr %4, align 8
  br label %212

184:                                              ; preds = %156
  br label %185

185:                                              ; preds = %184, %144
  %186 = load ptr, ptr %5, align 8
  %187 = getelementptr inbounds %struct.lxb_html_tokenizer, ptr %186, i32 0, i32 8
  %188 = load ptr, ptr %187, align 8
  call void @lxb_html_token_clean(ptr noundef %188)
  %189 = load ptr, ptr %5, align 8
  %190 = getelementptr inbounds %struct.lxb_html_tokenizer, ptr %189, i32 0, i32 16
  %191 = load ptr, ptr %190, align 8
  %192 = load ptr, ptr %5, align 8
  %193 = getelementptr inbounds %struct.lxb_html_tokenizer, ptr %192, i32 0, i32 17
  store ptr %191, ptr %193, align 8
  br label %194

194:                                              ; preds = %185
  %195 = load ptr, ptr %7, align 8
  store ptr %195, ptr %4, align 8
  br label %212

196:                                              ; preds = %125
  br label %197

197:                                              ; preds = %196, %3
  %198 = load ptr, ptr %5, align 8
  %199 = getelementptr inbounds %struct.lxb_html_tokenizer, ptr %198, i32 0, i32 11
  %200 = load ptr, ptr %199, align 8
  %201 = load ptr, ptr %6, align 8
  %202 = call ptr @lxb_html_tokenizer_error_add(ptr noundef %200, ptr noundef %201, i32 noundef 27)
  %203 = load ptr, ptr %5, align 8
  %204 = getelementptr inbounds %struct.lxb_html_tokenizer, ptr %203, i32 0, i32 8
  %205 = load ptr, ptr %204, align 8
  %206 = getelementptr inbounds %struct.lxb_html_token_t, ptr %205, i32 0, i32 11
  %207 = load i32, ptr %206, align 8
  %208 = or i32 %207, 4
  store i32 %208, ptr %206, align 8
  %209 = load ptr, ptr %5, align 8
  %210 = getelementptr inbounds %struct.lxb_html_tokenizer, ptr %209, i32 0, i32 0
  store ptr @lxb_html_tokenizer_state_doctype_bogus, ptr %210, align 8
  %211 = load ptr, ptr %6, align 8
  store ptr %211, ptr %4, align 8
  br label %212

212:                                              ; preds = %197, %194, %182, %120, %115, %94, %89, %70, %58, %12
  %213 = load ptr, ptr %4, align 8
  ret ptr %213
}