; Function Attrs: nounwind uwtable
define internal ptr @lxb_html_tokenizer_state_doctype_after_public_identifier(ptr noundef %0, ptr noundef %1, ptr noundef readnone %2) #0 {
  %4 = load i8, ptr %1, align 1
  switch i8 %4, label %95 [
    i8 9, label %5
    i8 10, label %5
    i8 12, label %5
    i8 13, label %5
    i8 32, label %5
    i8 62, label %7
    i8 34, label %31
    i8 39, label %45
    i8 0, label %59
  ]

5:                                                ; preds = %3, %3, %3, %3, %3
  store ptr @lxb_html_tokenizer_state_doctype_between_public_and_system_identifiers, ptr %0, align 8
  %6 = getelementptr inbounds i8, ptr %1, i64 1
  br label %104

7:                                                ; preds = %3
  store ptr @lxb_html_tokenizer_state_data_before, ptr %0, align 8
  %8 = getelementptr inbounds i8, ptr %0, i64 64
  %9 = load ptr, ptr %8, align 8
  %10 = load ptr, ptr %9, align 8
  %11 = getelementptr inbounds i8, ptr %9, i64 8
  %12 = load ptr, ptr %11, align 8
  %.not63 = icmp eq ptr %10, %12
  br i1 %.not63, label %25, label %13

13:                                               ; preds = %7
  %14 = getelementptr inbounds i8, ptr %0, i64 16
  %15 = load ptr, ptr %14, align 8
  %16 = getelementptr inbounds i8, ptr %0, i64 24
  %17 = load ptr, ptr %16, align 8
  %18 = tail call ptr %15(ptr noundef nonnull %0, ptr noundef nonnull %9, ptr noundef %17) #4
  store ptr %18, ptr %8, align 8
  %19 = icmp eq ptr %18, null
  br i1 %19, label %20, label %25

20:                                               ; preds = %13
  %21 = getelementptr inbounds i8, ptr %0, i64 232
  %22 = load i32, ptr %21, align 8
  %23 = icmp eq i32 %22, 0
  br i1 %23, label %24, label %104

24:                                               ; preds = %20
  store i32 1, ptr %21, align 8
  br label %104

25:                                               ; preds = %13, %7
  %26 = phi ptr [ %18, %13 ], [ %9, %7 ]
  tail call void @llvm.memset.p0.i64(ptr noundef nonnull align 8 dereferenceable(96) %26, i8 0, i64 96, i1 false)
  %27 = getelementptr inbounds i8, ptr %0, i64 128
  %28 = load ptr, ptr %27, align 8
  %29 = getelementptr inbounds i8, ptr %0, i64 136
  store ptr %28, ptr %29, align 8
  %30 = getelementptr inbounds i8, ptr %1, i64 1
  br label %104

31:                                               ; preds = %3
  %32 = getelementptr inbounds i8, ptr %0, i64 88
  %33 = load ptr, ptr %32, align 8
  %34 = tail call ptr @lxb_html_tokenizer_error_add(ptr noundef %33, ptr noundef nonnull %1, i32 noundef 33) #4
  %35 = getelementptr inbounds i8, ptr %0, i64 64
  %36 = load ptr, ptr %35, align 8
  %37 = getelementptr inbounds i8, ptr %0, i64 80
  %38 = load ptr, ptr %37, align 8
  %39 = tail call ptr @lxb_html_token_attr_append(ptr noundef %36, ptr noundef %38) #4
  %40 = icmp eq ptr %39, null
  br i1 %40, label %41, label %43

41:                                               ; preds = %31
  %42 = getelementptr inbounds i8, ptr %0, i64 232
  store i32 2, ptr %42, align 8
  br label %104

43:                                               ; preds = %31
  store ptr @lxb_html_tokenizer_state_doctype_system_identifier_double_quoted, ptr %0, align 8
  %44 = getelementptr inbounds i8, ptr %1, i64 1
  br label %104

45:                                               ; preds = %3
  %46 = getelementptr inbounds i8, ptr %0, i64 88
  %47 = load ptr, ptr %46, align 8
  %48 = tail call ptr @lxb_html_tokenizer_error_add(ptr noundef %47, ptr noundef nonnull %1, i32 noundef 33) #4
  %49 = getelementptr inbounds i8, ptr %0, i64 64
  %50 = load ptr, ptr %49, align 8
  %51 = getelementptr inbounds i8, ptr %0, i64 80
  %52 = load ptr, ptr %51, align 8
  %53 = tail call ptr @lxb_html_token_attr_append(ptr noundef %50, ptr noundef %52) #4
  %54 = icmp eq ptr %53, null
  br i1 %54, label %55, label %57

55:                                               ; preds = %45
  %56 = getelementptr inbounds i8, ptr %0, i64 232
  store i32 2, ptr %56, align 8
  br label %104

57:                                               ; preds = %45
  store ptr @lxb_html_tokenizer_state_doctype_system_identifier_single_quoted, ptr %0, align 8
  %58 = getelementptr inbounds i8, ptr %1, i64 1
  br label %104

59:                                               ; preds = %3
  %60 = getelementptr inbounds i8, ptr %0, i64 236
  %61 = load i8, ptr %60, align 4
  %62 = and i8 %61, 1
  %.not = icmp eq i8 %62, 0
  br i1 %.not, label %95, label %63

63:                                               ; preds = %59
  %64 = getelementptr inbounds i8, ptr %0, i64 88
  %65 = load ptr, ptr %64, align 8
  %66 = getelementptr inbounds i8, ptr %0, i64 160
  %67 = load ptr, ptr %66, align 8
  %68 = tail call ptr @lxb_html_tokenizer_error_add(ptr noundef %65, ptr noundef %67, i32 noundef 14) #4
  %69 = getelementptr inbounds i8, ptr %0, i64 64
  %70 = load ptr, ptr %69, align 8
  %71 = getelementptr inbounds i8, ptr %70, i64 88
  %72 = load i32, ptr %71, align 8
  %73 = or i32 %72, 4
  store i32 %73, ptr %71, align 8
  %74 = load ptr, ptr %69, align 8
  %75 = load ptr, ptr %74, align 8
  %76 = getelementptr inbounds i8, ptr %74, i64 8
  %77 = load ptr, ptr %76, align 8
  %.not62 = icmp eq ptr %75, %77
  br i1 %.not62, label %90, label %78

78:                                               ; preds = %63
  %79 = getelementptr inbounds i8, ptr %0, i64 16
  %80 = load ptr, ptr %79, align 8
  %81 = getelementptr inbounds i8, ptr %0, i64 24
  %82 = load ptr, ptr %81, align 8
  %83 = tail call ptr %80(ptr noundef nonnull %0, ptr noundef nonnull %74, ptr noundef %82) #4
  store ptr %83, ptr %69, align 8
  %84 = icmp eq ptr %83, null
  br i1 %84, label %85, label %90

85:                                               ; preds = %78
  %86 = getelementptr inbounds i8, ptr %0, i64 232
  %87 = load i32, ptr %86, align 8
  %88 = icmp eq i32 %87, 0
  br i1 %88, label %89, label %104

89:                                               ; preds = %85
  store i32 1, ptr %86, align 8
  br label %104

90:                                               ; preds = %78, %63
  %91 = phi ptr [ %83, %78 ], [ %74, %63 ]
  tail call void @llvm.memset.p0.i64(ptr noundef nonnull align 8 dereferenceable(96) %91, i8 0, i64 96, i1 false)
  %92 = getelementptr inbounds i8, ptr %0, i64 128
  %93 = load ptr, ptr %92, align 8
  %94 = getelementptr inbounds i8, ptr %0, i64 136
  store ptr %93, ptr %94, align 8
  br label %104

95:                                               ; preds = %59, %3
  %96 = getelementptr inbounds i8, ptr %0, i64 88
  %97 = load ptr, ptr %96, align 8
  %98 = tail call ptr @lxb_html_tokenizer_error_add(ptr noundef %97, ptr noundef nonnull %1, i32 noundef 27) #4
  %99 = getelementptr inbounds i8, ptr %0, i64 64
  %100 = load ptr, ptr %99, align 8
  %101 = getelementptr inbounds i8, ptr %100, i64 88
  %102 = load i32, ptr %101, align 8
  %103 = or i32 %102, 4
  store i32 %103, ptr %101, align 8
  store ptr @lxb_html_tokenizer_state_doctype_bogus, ptr %0, align 8
  br label %104

104:                                              ; preds = %85, %89, %20, %24, %95, %90, %57, %55, %43, %41, %25, %5
  %.0 = phi ptr [ %1, %95 ], [ %2, %90 ], [ %2, %55 ], [ %58, %57 ], [ %2, %41 ], [ %44, %43 ], [ %30, %25 ], [ %6, %5 ], [ %2, %24 ], [ %2, %20 ], [ %2, %89 ], [ %2, %85 ]
  ret ptr %.0
}